target datalayout = "e-m:e-p270:32:32-p271:32:32-p272:64:64-i64:64-i128:128-f80:128-n8:16:32:64-S128"
target triple = "x86_64-unknown-linux-gnu"

%"class.facebook::velox::cache::SsdRun" = type { i64 }
%"class.facebook::velox::cache::SsdPin" = type { ptr, %"class.facebook::velox::cache::SsdRun" }
%"struct.facebook::velox::TsanEmptyLockGuard" = type { i8 }
%"class.facebook::velox::cache::SsdFile" = type <{ %"class.std::__cxx11::basic_string", i32, [4 x i8], %"class.std::shared_mutex", i32, i32, i8, [7 x i8], %"class.std::vector", %"class.std::vector.3", %"class.facebook::velox::cache::SsdFileTracker", %"class.std::vector.3", %"class.folly::F14FastMap", i32, [4 x i8], i64, %"class.std::unique_ptr", %"struct.facebook::velox::cache::SsdCacheStats", i64, ptr, %"struct.std::atomic", i32, i8, [3 x i8] }>
%"class.std::__cxx11::basic_string" = type { %"struct.std::__cxx11::basic_string<char>::_Alloc_hider", i64, %union.anon }
%"struct.std::__cxx11::basic_string<char>::_Alloc_hider" = type { ptr }
%union.anon = type { i64, [8 x i8] }
%"class.std::shared_mutex" = type { %"class.std::__shared_mutex_pthread" }
%"class.std::__shared_mutex_pthread" = type { %union.pthread_rwlock_t }
%union.pthread_rwlock_t = type { %struct.__pthread_rwlock_arch_t }
%struct.__pthread_rwlock_arch_t = type { i32, i32, i32, i32, i32, i32, i32, i32, i8, [7 x i8], i64, i32 }
%"class.std::vector" = type { %"struct.std::_Vector_base" }
%"struct.std::_Vector_base" = type { %"struct.std::_Vector_base<unsigned int, std::allocator<unsigned int>>::_Vector_impl" }
%"struct.std::_Vector_base<unsigned int, std::allocator<unsigned int>>::_Vector_impl" = type { %"struct.std::_Vector_base<unsigned int, std::allocator<unsigned int>>::_Vector_impl_data" }
%"struct.std::_Vector_base<unsigned int, std::allocator<unsigned int>>::_Vector_impl_data" = type { ptr, ptr, ptr }
%"class.facebook::velox::cache::SsdFileTracker" = type { %"class.std::vector.8", i64 }
%"class.std::vector.8" = type { %"struct.std::_Vector_base.9" }
%"struct.std::_Vector_base.9" = type { %"struct.std::_Vector_base<unsigned long, std::allocator<unsigned long>>::_Vector_impl" }
%"struct.std::_Vector_base<unsigned long, std::allocator<unsigned long>>::_Vector_impl" = type { %"struct.std::_Vector_base<unsigned long, std::allocator<unsigned long>>::_Vector_impl_data" }
%"struct.std::_Vector_base<unsigned long, std::allocator<unsigned long>>::_Vector_impl_data" = type { ptr, ptr, ptr }
%"class.std::vector.3" = type { %"struct.std::_Vector_base.4" }
%"struct.std::_Vector_base.4" = type { %"struct.std::_Vector_base<int, std::allocator<int>>::_Vector_impl" }
%"struct.std::_Vector_base<int, std::allocator<int>>::_Vector_impl" = type { %"struct.std::_Vector_base<int, std::allocator<int>>::_Vector_impl_data" }
%"struct.std::_Vector_base<int, std::allocator<int>>::_Vector_impl_data" = type { ptr, ptr, ptr }
%"class.folly::F14FastMap" = type { %"class.folly::f14::detail::F14VectorMapImpl" }
%"class.folly::f14::detail::F14VectorMapImpl" = type { %"class.folly::f14::detail::F14BasicMap" }
%"class.folly::f14::detail::F14BasicMap" = type { %"class.folly::f14::detail::F14Table" }
%"class.folly::f14::detail::F14Table" = type { %"class.folly::f14::detail::VectorContainerPolicy", ptr, i32, %"struct.folly::f14::detail::SizeAndPackedBegin" }
%"class.folly::f14::detail::VectorContainerPolicy" = type { ptr }
%"struct.folly::f14::detail::SizeAndPackedBegin" = type { i32 }
%"class.std::unique_ptr" = type { %"struct.std::__uniq_ptr_data" }
%"struct.std::__uniq_ptr_data" = type { %"class.std::__uniq_ptr_impl" }
%"class.std::__uniq_ptr_impl" = type { %"class.std::tuple" }
%"class.std::tuple" = type { %"struct.std::_Tuple_impl" }
%"struct.std::_Tuple_impl" = type { %"struct.std::_Head_base.19" }
%"struct.std::_Head_base.19" = type { ptr }
%"struct.facebook::velox::cache::SsdCacheStats" = type { i64, i64, i64, i64, i64, i64, i32, i32, i32, i32, i32, i32, i32, i32, i32, i32 }
%"struct.std::atomic" = type { %"struct.std::__atomic_base" }
%"struct.std::__atomic_base" = type { i64 }

; Function Attrs: mustprogress nounwind uwtable
define linkonce_odr noundef nonnull align 4 dereferenceable(4) ptr @_ZNKSt6vectorIiSaIiEEixEm(ptr noundef nonnull align 8 dereferenceable(24) %this, i64 noundef %__n) #4 comdat align 2 {
entry:
  %this.addr = alloca ptr, align 8
  %__n.addr = alloca i64, align 8
  store ptr %this, ptr %this.addr, align 8
  store i64 %__n, ptr %__n.addr, align 8
  %this1 = load ptr, ptr %this.addr, align 8
  %_M_impl = getelementptr inbounds %"struct.std::_Vector_base.4", ptr %this1, i32 0, i32 0
  %_M_start = getelementptr inbounds %"struct.std::_Vector_base<int, std::allocator<int>>::_Vector_impl_data", ptr %_M_impl, i32 0, i32 0
  %0 = load ptr, ptr %_M_start, align 8
  %1 = load i64, ptr %__n.addr, align 8
  %add.ptr = getelementptr inbounds i32, ptr %0, i64 %1
  ret ptr %add.ptr
}

; Function Attrs: mustprogress nounwind uwtable
define linkonce_odr noundef i32 @_ZN8facebook5velox5cache7SsdFile11regionIndexEm(i64 noundef %offset) #4 comdat align 2 {
entry:
  %offset.addr = alloca i64, align 8
  store i64 %offset, ptr %offset.addr, align 8
  %0 = load i64, ptr %offset.addr, align 8
  %div = udiv i64 %0, 67108864
  %conv = trunc i64 %div to i32
  ret i32 %conv
}

; Function Attrs: mustprogress nounwind uwtable
define linkonce_odr void @_ZN8facebook5velox18TsanEmptyLockGuardISt12shared_mutexEC2ERS2_(ptr noundef nonnull align 1 dereferenceable(1) %this, ptr noundef nonnull align 8 dereferenceable(56) %0) unnamed_addr #4 comdat align 2 {
entry:
  %this.addr = alloca ptr, align 8
  %.addr = alloca ptr, align 8
  store ptr %this, ptr %this.addr, align 8
  store ptr %0, ptr %.addr, align 8
  ret void
}

; Function Attrs: mustprogress uwtable
define linkonce_odr void @_ZNK8facebook5velox5cache7SsdFile11checkPinnedEm(ptr noundef nonnull align 8 dereferenceable(381) %this, i64 noundef %offset) #2 comdat align 2 {
entry:
  %this.addr = alloca ptr, align 8
  %offset.addr = alloca i64, align 8
  %l = alloca %"struct.facebook::velox::TsanEmptyLockGuard", align 1
  store ptr %this, ptr %this.addr, align 8
  store i64 %offset, ptr %offset.addr, align 8
  %this1 = load ptr, ptr %this.addr, align 8
  %mutex_ = getelementptr inbounds %"class.facebook::velox::cache::SsdFile", ptr %this1, i32 0, i32 3
  call void @_ZN8facebook5velox18TsanEmptyLockGuardISt12shared_mutexEC2ERS2_(ptr noundef nonnull align 1 dereferenceable(1) %l, ptr noundef nonnull align 8 dereferenceable(56) %mutex_)
  %regionPins_ = getelementptr inbounds %"class.facebook::velox::cache::SsdFile", ptr %this1, i32 0, i32 11
  %0 = load i64, ptr %offset.addr, align 8
  %call = call noundef i32 @_ZN8facebook5velox5cache7SsdFile11regionIndexEm(i64 noundef %0)
  %conv = sext i32 %call to i64
  %call2 = call noundef nonnull align 4 dereferenceable(4) ptr @_ZNKSt6vectorIiSaIiEEixEm(ptr noundef nonnull align 8 dereferenceable(24) %regionPins_, i64 noundef %conv) #29
  %1 = load i32, ptr %call2, align 4
  %cmp = icmp sgt i32 %1, 0
  %lnot = xor i1 %cmp, true
  br i1 %lnot, label %if.then, label %if.end

if.then:                                          ; preds = %entry
  call void @llvm.trap()
  br label %if.end

if.end:                                           ; preds = %if.then, %entry
  ret void
}

; Function Attrs: mustprogress nounwind uwtable
define linkonce_odr noundef i64 @_ZNK8facebook5velox5cache6SsdRun6offsetEv(ptr noundef nonnull align 8 dereferenceable(8) %this) #4 comdat align 2 {
entry:
  %this.addr = alloca ptr, align 8
  store ptr %this, ptr %this.addr, align 8
  %this1 = load ptr, ptr %this.addr, align 8
  %bits_ = getelementptr inbounds %"class.facebook::velox::cache::SsdRun", ptr %this1, i32 0, i32 0
  %0 = load i64, ptr %bits_, align 8
  %shr = lshr i64 %0, 23
  ret i64 %shr
}

; Function Attrs: mustprogress uwtable
define void @_ZN8facebook5velox5cache6SsdPinC2ERNS1_7SsdFileENS1_6SsdRunE(ptr noundef nonnull align 8 dereferenceable(16) %this, ptr noundef nonnull align 8 dereferenceable(381) %file, i64 %run.coerce) unnamed_addr #2 align 2 {
entry:
  %run = alloca %"class.facebook::velox::cache::SsdRun", align 8
  %this.addr = alloca ptr, align 8
  %file.addr = alloca ptr, align 8
  %coerce.dive = getelementptr inbounds %"class.facebook::velox::cache::SsdRun", ptr %run, i32 0, i32 0
  store i64 %run.coerce, ptr %coerce.dive, align 8
  store ptr %this, ptr %this.addr, align 8
  store ptr %file, ptr %file.addr, align 8
  %this1 = load ptr, ptr %this.addr, align 8
  %file_ = getelementptr inbounds %"class.facebook::velox::cache::SsdPin", ptr %this1, i32 0, i32 0
  %0 = load ptr, ptr %file.addr, align 8
  store ptr %0, ptr %file_, align 8
  %run_ = getelementptr inbounds %"class.facebook::velox::cache::SsdPin", ptr %this1, i32 0, i32 1
  call void @llvm.memcpy.p0.p0.i64(ptr align 8 %run_, ptr align 8 %run, i64 8, i1 false)
  %file_2 = getelementptr inbounds %"class.facebook::velox::cache::SsdPin", ptr %this1, i32 0, i32 0
  %1 = load ptr, ptr %file_2, align 8
  %run_3 = getelementptr inbounds %"class.facebook::velox::cache::SsdPin", ptr %this1, i32 0, i32 1
  %call = call noundef i64 @_ZNK8facebook5velox5cache6SsdRun6offsetEv(ptr noundef nonnull align 8 dereferenceable(8) %run_3)
  call void @_ZNK8facebook5velox5cache7SsdFile11checkPinnedEm(ptr noundef nonnull align 8 dereferenceable(381) %1, i64 noundef %call)
  ret void
}