; Function Attrs: mustprogress nounwind memory(read, argmem: readwrite, inaccessiblemem: write) uwtable
define void @_ZN8facebook5velox5cache6SsdPinC2ERNS1_7SsdFileENS1_6SsdRunE(ptr nocapture noundef nonnull writeonly align 8 dereferenceable(16) %this, ptr noundef nonnull align 8 dereferenceable(381) %file, i64 %run.coerce) unnamed_addr #1 align 2 {
entry:
  store ptr %file, ptr %this, align 8
  %run_ = getelementptr inbounds i8, ptr %this, i64 8
  store i64 %run.coerce, ptr %run_, align 8
  %regionPins_.i = getelementptr inbounds i8, ptr %file, i64 192
  %0 = lshr i64 %run.coerce, 49
  %1 = load ptr, ptr %regionPins_.i, align 8
  %add.ptr.i.i = getelementptr inbounds i32, ptr %1, i64 %0
  %2 = load i32, ptr %add.ptr.i.i, align 4
  %cmp.i = icmp slt i32 %2, 1
  br i1 %cmp.i, label %if.then.i, label %_ZNK8facebook5velox5cache7SsdFile11checkPinnedEm.exit

if.then.i:                                        ; preds = %entry
  tail call void @llvm.trap()
  unreachable

_ZNK8facebook5velox5cache7SsdFile11checkPinnedEm.exit: ; preds = %entry
  ret void
}